target datalayout = "e-m:e-p270:32:32-p271:32:32-p272:64:64-i64:64-i128:128-f80:128-n8:16:32:64-S128"
target triple = "x86_64-pc-linux-gnu"

; Function Attrs: alwaysinline nounwind willreturn memory(none) uwtable
define internal zeroext i8 @av_clip_uint8_c(i32 noundef %0) #6 {
  %2 = alloca i8, align 1
  %3 = alloca i32, align 4
  store i32 %0, ptr %3, align 4, !tbaa !9
  %4 = load i32, ptr %3, align 4, !tbaa !9
  %5 = and i32 %4, -256
  %6 = icmp ne i32 %5, 0
  br i1 %6, label %7, label %12

7:                                                ; preds = %1
  %8 = load i32, ptr %3, align 4, !tbaa !9
  %9 = xor i32 %8, -1
  %10 = ashr i32 %9, 31
  %11 = trunc i32 %10 to i8
  store i8 %11, ptr %2, align 1
  br label %15

12:                                               ; preds = %1
  %13 = load i32, ptr %3, align 4, !tbaa !9
  %14 = trunc i32 %13 to i8
  store i8 %14, ptr %2, align 1
  br label %15

15:                                               ; preds = %12, %7
  %16 = load i8, ptr %2, align 1
  ret i8 %16
}

; Function Attrs: nounwind uwtable
define internal void @weight_h264_pixels2_8_c(ptr noundef %0, i64 noundef %1, i32 noundef %2, i32 noundef %3, i32 noundef %4, i32 noundef %5) #1 {
  %7 = alloca ptr, align 8
  %8 = alloca i64, align 8
  %9 = alloca i32, align 4
  %10 = alloca i32, align 4
  %11 = alloca i32, align 4
  %12 = alloca i32, align 4
  %13 = alloca i32, align 4
  %14 = alloca ptr, align 8
  store ptr %0, ptr %7, align 8, !tbaa !39
  store i64 %1, ptr %8, align 8, !tbaa !53
  store i32 %2, ptr %9, align 4, !tbaa !9
  store i32 %3, ptr %10, align 4, !tbaa !9
  store i32 %4, ptr %11, align 4, !tbaa !9
  store i32 %5, ptr %12, align 4, !tbaa !9
  call void @llvm.lifetime.start.p0(i64 4, ptr %13) #9
  call void @llvm.lifetime.start.p0(i64 8, ptr %14) #9
  %15 = load ptr, ptr %7, align 8, !tbaa !39
  store ptr %15, ptr %14, align 8, !tbaa !39
  %16 = load i64, ptr %8, align 8, !tbaa !53
  %17 = ashr i64 %16, 0
  store i64 %17, ptr %8, align 8, !tbaa !53
  %18 = load i32, ptr %12, align 4, !tbaa !9
  %19 = load i32, ptr %10, align 4, !tbaa !9
  %20 = add nsw i32 %19, 0
  %21 = shl i32 %18, %20
  store i32 %21, ptr %12, align 4, !tbaa !9
  %22 = load i32, ptr %10, align 4, !tbaa !9
  %23 = icmp ne i32 %22, 0
  br i1 %23, label %24, label %30

24:                                               ; preds = %6
  %25 = load i32, ptr %10, align 4, !tbaa !9
  %26 = sub nsw i32 %25, 1
  %27 = shl i32 1, %26
  %28 = load i32, ptr %12, align 4, !tbaa !9
  %29 = add nsw i32 %28, %27
  store i32 %29, ptr %12, align 4, !tbaa !9
  br label %30

30:                                               ; preds = %24, %6
  store i32 0, ptr %13, align 4, !tbaa !9
  br label %31

31:                                               ; preds = %62, %30
  %32 = load i32, ptr %13, align 4, !tbaa !9
  %33 = load i32, ptr %9, align 4, !tbaa !9
  %34 = icmp slt i32 %32, %33
  br i1 %34, label %35, label %68

35:                                               ; preds = %31
  %36 = load ptr, ptr %14, align 8, !tbaa !39
  %37 = getelementptr inbounds i8, ptr %36, i64 0
  %38 = load i8, ptr %37, align 1, !tbaa !50
  %39 = zext i8 %38 to i32
  %40 = load i32, ptr %11, align 4, !tbaa !9
  %41 = mul nsw i32 %39, %40
  %42 = load i32, ptr %12, align 4, !tbaa !9
  %43 = add nsw i32 %41, %42
  %44 = load i32, ptr %10, align 4, !tbaa !9
  %45 = ashr i32 %43, %44
  %46 = call zeroext i8 @av_clip_uint8_c(i32 noundef %45) #10
  %47 = load ptr, ptr %14, align 8, !tbaa !39
  %48 = getelementptr inbounds i8, ptr %47, i64 0
  store i8 %46, ptr %48, align 1, !tbaa !50
  %49 = load ptr, ptr %14, align 8, !tbaa !39
  %50 = getelementptr inbounds i8, ptr %49, i64 1
  %51 = load i8, ptr %50, align 1, !tbaa !50
  %52 = zext i8 %51 to i32
  %53 = load i32, ptr %11, align 4, !tbaa !9
  %54 = mul nsw i32 %52, %53
  %55 = load i32, ptr %12, align 4, !tbaa !9
  %56 = add nsw i32 %54, %55
  %57 = load i32, ptr %10, align 4, !tbaa !9
  %58 = ashr i32 %56, %57
  %59 = call zeroext i8 @av_clip_uint8_c(i32 noundef %58) #10
  %60 = load ptr, ptr %14, align 8, !tbaa !39
  %61 = getelementptr inbounds i8, ptr %60, i64 1
  store i8 %59, ptr %61, align 1, !tbaa !50
  br label %62

62:                                               ; preds = %35
  %63 = load i32, ptr %13, align 4, !tbaa !9
  %64 = add nsw i32 %63, 1
  store i32 %64, ptr %13, align 4, !tbaa !9
  %65 = load i64, ptr %8, align 8, !tbaa !53
  %66 = load ptr, ptr %14, align 8, !tbaa !39
  %67 = getelementptr inbounds i8, ptr %66, i64 %65
  store ptr %67, ptr %14, align 8, !tbaa !39
  br label %31, !llvm.loop !90

68:                                               ; preds = %31
  call void @llvm.lifetime.end.p0(i64 8, ptr %14) #9
  call void @llvm.lifetime.end.p0(i64 4, ptr %13) #9
  ret void
}