; Function Attrs: nofree norecurse nosync nounwind memory(argmem: readwrite) uwtable
define internal void @weight_h264_pixels2_8_c(ptr noundef captures(none) %0, i64 noundef %1, i32 noundef %2, i32 noundef %3, i32 noundef %4, i32 noundef %5) #1 {
  %7 = shl i32 %5, %3
  %.not = icmp eq i32 %3, 0
  %8 = add nsw i32 %3, -1
  %9 = shl nuw i32 1, %8
  %10 = add nsw i32 %7, %9
  %.022 = select i1 %.not, i32 %5, i32 %10
  %11 = icmp sgt i32 %2, 0
  br i1 %11, label %.lr.ph.lver.check, label %._crit_edge

.lr.ph.lver.check:                                ; preds = %6
  %ident.check.not = icmp eq i64 %1, 1
  br i1 %ident.check.not, label %.lr.ph.ph, label %.lr.ph.lver.orig

.lr.ph.lver.orig:                                 ; preds = %.lr.ph.lver.check, %.lr.ph.lver.orig
  %.028.lver.orig = phi ptr [ %28, %.lr.ph.lver.orig ], [ %0, %.lr.ph.lver.check ]
  %.02127.lver.orig = phi i32 [ %27, %.lr.ph.lver.orig ], [ 0, %.lr.ph.lver.check ]
  %12 = load i8, ptr %.028.lver.orig, align 1, !tbaa !42
  %13 = zext i8 %12 to i32
  %14 = mul nsw i32 %4, %13
  %15 = add nsw i32 %14, %.022
  %16 = ashr i32 %15, %3
  %.not.i.lver.orig = icmp ult i32 %16, 256
  %isnotneg.i.lver.orig = icmp sgt i32 %16, -1
  %17 = sext i1 %isnotneg.i.lver.orig to i8
  %18 = trunc nuw i32 %16 to i8
  %.0.i.lver.orig = select i1 %.not.i.lver.orig, i8 %18, i8 %17
  store i8 %.0.i.lver.orig, ptr %.028.lver.orig, align 1, !tbaa !42
  %19 = getelementptr inbounds nuw i8, ptr %.028.lver.orig, i64 1
  %20 = load i8, ptr %19, align 1, !tbaa !42
  %21 = zext i8 %20 to i32
  %22 = mul nsw i32 %4, %21
  %23 = add nsw i32 %22, %.022
  %24 = ashr i32 %23, %3
  %.not.i24.lver.orig = icmp ult i32 %24, 256
  %isnotneg.i25.lver.orig = icmp sgt i32 %24, -1
  %25 = sext i1 %isnotneg.i25.lver.orig to i8
  %26 = trunc nuw i32 %24 to i8
  %.0.i26.lver.orig = select i1 %.not.i24.lver.orig, i8 %26, i8 %25
  store i8 %.0.i26.lver.orig, ptr %19, align 1, !tbaa !42
  %27 = add nuw nsw i32 %.02127.lver.orig, 1
  %28 = getelementptr inbounds i8, ptr %.028.lver.orig, i64 %1
  %exitcond.not.lver.orig = icmp eq i32 %27, %2
  br i1 %exitcond.not.lver.orig, label %._crit_edge, label %.lr.ph.lver.orig, !llvm.loop !104

.lr.ph.ph:                                        ; preds = %.lr.ph.lver.check
  %load_initial = load i8, ptr %0, align 1
  br label %.lr.ph

.lr.ph:                                           ; preds = %.lr.ph.ph, %.lr.ph
  %store_forwarded = phi i8 [ %load_initial, %.lr.ph.ph ], [ %.0.i26, %.lr.ph ]
  %.028 = phi ptr [ %0, %.lr.ph.ph ], [ %44, %.lr.ph ]
  %.02127 = phi i32 [ 0, %.lr.ph.ph ], [ %43, %.lr.ph ]
  %29 = zext i8 %store_forwarded to i32
  %30 = mul nsw i32 %4, %29
  %31 = add nsw i32 %30, %.022
  %32 = ashr i32 %31, %3
  %.not.i = icmp ult i32 %32, 256
  %isnotneg.i = icmp sgt i32 %32, -1
  %33 = sext i1 %isnotneg.i to i8
  %34 = trunc nuw i32 %32 to i8
  %.0.i = select i1 %.not.i, i8 %34, i8 %33
  store i8 %.0.i, ptr %.028, align 1, !tbaa !42
  %35 = getelementptr inbounds nuw i8, ptr %.028, i64 1
  %36 = load i8, ptr %35, align 1, !tbaa !42
  %37 = zext i8 %36 to i32
  %38 = mul nsw i32 %4, %37
  %39 = add nsw i32 %38, %.022
  %40 = ashr i32 %39, %3
  %.not.i24 = icmp ult i32 %40, 256
  %isnotneg.i25 = icmp sgt i32 %40, -1
  %41 = sext i1 %isnotneg.i25 to i8
  %42 = trunc nuw i32 %40 to i8
  %.0.i26 = select i1 %.not.i24, i8 %42, i8 %41
  store i8 %.0.i26, ptr %35, align 1, !tbaa !42
  %43 = add nuw nsw i32 %.02127, 1
  %44 = getelementptr inbounds nuw i8, ptr %.028, i64 %1
  %exitcond.not = icmp eq i32 %43, %2
  br i1 %exitcond.not, label %._crit_edge, label %.lr.ph, !llvm.loop !104

._crit_edge:                                      ; preds = %.lr.ph.lver.orig, %.lr.ph, %6
  ret void
}